target datalayout = "e-m:e-p270:32:32-p271:32:32-p272:64:64-i64:64-i128:128-f80:128-n8:16:32:64-S128"
target triple = "x86_64-pc-linux-gnu"

%"class.icu_77::UnicodeSet" = type <{ %"class.icu_77::UnicodeFilter", ptr, i32, i32, i8, [7 x i8], ptr, ptr, i32, [4 x i8], ptr, i32, [4 x i8], ptr, ptr, [25 x i32], [4 x i8] }>
%"class.icu_77::UnicodeFilter" = type { %"class.icu_77::UnicodeFunctor", %"class.icu_77::UnicodeMatcher" }
%"class.icu_77::UnicodeFunctor" = type { %"class.icu_77::UObject" }
%"class.icu_77::UObject" = type { ptr }
%"class.icu_77::UnicodeMatcher" = type { ptr }
%"class.icu_77::UnicodeString" = type { %"class.icu_77::Replaceable", %"union.icu_77::UnicodeString::StackBufferOrFields" }
%"class.icu_77::Replaceable" = type { %"class.icu_77::UObject" }
%"union.icu_77::UnicodeString::StackBufferOrFields" = type { %struct.anon.0, [32 x i8] }
%struct.anon.0 = type { i16, i32, i32, ptr }
%"class.icu_77::RuleCharacterIterator" = type <{ ptr, ptr, ptr, ptr, i32, [4 x i8] }>
%struct.anon = type { i16, [27 x i16] }

@_ZTVN6icu_777UObjectE = available_externally unnamed_addr constant { [5 x ptr] } { [5 x ptr] [ptr null, ptr @_ZTIN6icu_777UObjectE, ptr @_ZN6icu_777UObjectD1Ev, ptr @_ZN6icu_777UObjectD0Ev, ptr @_ZNK6icu_777UObject17getDynamicClassIDEv] }, align 8

; Function Attrs: inlinehint mustprogress nounwind uwtable
define linkonce_odr void @_ZN6icu_777UObjectC2Ev(ptr noundef nonnull align 8 dereferenceable(8) %0) unnamed_addr #2 comdat align 2 {
  %2 = alloca ptr, align 8
  store ptr %0, ptr %2, align 8, !tbaa !103
  %3 = load ptr, ptr %2, align 8
  store ptr getelementptr inbounds inrange(-16, 24) ({ [5 x ptr] }, ptr @_ZTVN6icu_777UObjectE, i32 0, i32 0, i32 2), ptr %3, align 8, !tbaa !29
  ret void
}

; Function Attrs: inlinehint mustprogress nounwind uwtable
define linkonce_odr void @_ZN6icu_7711ReplaceableC2Ev(ptr noundef nonnull align 8 dereferenceable(8) %0) unnamed_addr #2 comdat align 2 {
  %2 = alloca ptr, align 8
  store ptr %0, ptr %2, align 8, !tbaa !97
  %3 = load ptr, ptr %2, align 8
  call void @_ZN6icu_777UObjectC2Ev(ptr noundef nonnull align 8 dereferenceable(8) %3) #13
  store ptr getelementptr inbounds inrange(-16, 88) ({ [13 x ptr] }, ptr @_ZTVN6icu_7711ReplaceableE, i32 0, i32 0, i32 2), ptr %3, align 8, !tbaa !29
  ret void
}

; Function Attrs: inlinehint mustprogress nounwind uwtable
define linkonce_odr noundef signext i8 @_ZNK6icu_7721RuleCharacterIterator10inVariableEv(ptr noundef nonnull align 8 dereferenceable(36) %0) #2 comdat align 2 {
  %2 = alloca ptr, align 8
  store ptr %0, ptr %2, align 8, !tbaa !59
  %3 = load ptr, ptr %2, align 8
  %4 = getelementptr inbounds nuw %"class.icu_77::RuleCharacterIterator", ptr %3, i32 0, i32 3
  %5 = load ptr, ptr %4, align 8, !tbaa !61
  %6 = icmp ne ptr %5, null
  %7 = zext i1 %6 to i8
  ret i8 %7
}

; Function Attrs: inlinehint mustprogress uwtable
define linkonce_odr void @_ZN6icu_7713UnicodeStringC2Ev(ptr noundef nonnull align 8 dereferenceable(64) %0) unnamed_addr #3 comdat align 2 {
  %2 = alloca ptr, align 8
  store ptr %0, ptr %2, align 8, !tbaa !25
  %3 = load ptr, ptr %2, align 8
  call void @_ZN6icu_7711ReplaceableC2Ev(ptr noundef nonnull align 8 dereferenceable(8) %3)
  store ptr getelementptr inbounds inrange(-16, 88) ({ [13 x ptr] }, ptr @_ZTVN6icu_7713UnicodeStringE, i32 0, i32 0, i32 2), ptr %3, align 8, !tbaa !29
  %4 = getelementptr inbounds nuw %"class.icu_77::UnicodeString", ptr %3, i32 0, i32 1
  %5 = getelementptr inbounds nuw %struct.anon, ptr %4, i32 0, i32 0
  store i16 2, ptr %5, align 8, !tbaa !55
  ret void
}

; Function Attrs: inlinehint mustprogress nounwind uwtable
define linkonce_odr noundef signext i8 @_ZNK6icu_7710UnicodeSet8isFrozenEv(ptr noundef nonnull align 8 dereferenceable(200) %0) #2 comdat align 2 {
  %2 = alloca ptr, align 8
  store ptr %0, ptr %2, align 8, !tbaa !23
  %3 = load ptr, ptr %2, align 8
  %4 = getelementptr inbounds nuw %"class.icu_77::UnicodeSet", ptr %3, i32 0, i32 6
  %5 = load ptr, ptr %4, align 8, !tbaa !44
  %6 = icmp ne ptr %5, null
  br i1 %6, label %11, label %7

7:                                                ; preds = %1
  %8 = getelementptr inbounds nuw %"class.icu_77::UnicodeSet", ptr %3, i32 0, i32 14
  %9 = load ptr, ptr %8, align 8, !tbaa !50
  %10 = icmp ne ptr %9, null
  br label %11

11:                                               ; preds = %7, %1
  %12 = phi i1 [ true, %1 ], [ %10, %7 ]
  %13 = zext i1 %12 to i8
  ret i8 %13
}

; Function Attrs: inlinehint mustprogress nounwind uwtable
define internal noundef signext i8 @_ZL9U_FAILURE10UErrorCode(i32 noundef %0) #2 {
  %2 = alloca i32, align 4
  store i32 %0, ptr %2, align 4, !tbaa !15
  %3 = load i32, ptr %2, align 4, !tbaa !15
  %4 = icmp sgt i32 %3, 0
  %5 = zext i1 %4 to i8
  ret i8 %5
}

; Function Attrs: mustprogress uwtable
define noundef nonnull align 8 dereferenceable(200) ptr @_ZN6icu_7710UnicodeSet12applyPatternERKNS_13UnicodeStringERNS_13ParsePositionEjPKNS_11SymbolTableER10UErrorCode(ptr noundef nonnull align 8 dereferenceable(200) %0, ptr noundef nonnull align 8 dereferenceable(64) %1, ptr noundef nonnull align 8 dereferenceable(16) %2, i32 noundef %3, ptr noundef %4, ptr noundef nonnull align 4 dereferenceable(4) %5) #1 align 2 personality ptr @__gxx_personality_v0 {
  %7 = alloca ptr, align 8
  %8 = alloca ptr, align 8
  %9 = alloca ptr, align 8
  %10 = alloca ptr, align 8
  %11 = alloca i32, align 4
  %12 = alloca ptr, align 8
  %13 = alloca ptr, align 8
  %14 = alloca %"class.icu_77::UnicodeString", align 8
  %15 = alloca %"class.icu_77::RuleCharacterIterator", align 8
  %16 = alloca ptr, align 8
  %17 = alloca i32, align 4
  %18 = alloca { i64, i64 }, align 8
  %19 = alloca i32, align 4
  store ptr %0, ptr %8, align 8, !tbaa !23
  store ptr %1, ptr %9, align 8, !tbaa !25
  store ptr %2, ptr %10, align 8, !tbaa !53
  store i32 %3, ptr %11, align 4, !tbaa !14
  store ptr %4, ptr %12, align 8, !tbaa !27
  store ptr %5, ptr %13, align 8, !tbaa !22
  %20 = load ptr, ptr %8, align 8
  %21 = load ptr, ptr %13, align 8, !tbaa !22
  %22 = load i32, ptr %21, align 4, !tbaa !15
  %23 = call noundef signext i8 @_ZL9U_FAILURE10UErrorCode(i32 noundef %22)
  %24 = icmp ne i8 %23, 0
  br i1 %24, label %25, label %26

25:                                               ; preds = %6
  store ptr %20, ptr %7, align 8
  br label %59

26:                                               ; preds = %6
  %27 = call noundef signext i8 @_ZNK6icu_7710UnicodeSet8isFrozenEv(ptr noundef nonnull align 8 dereferenceable(200) %20)
  %28 = icmp ne i8 %27, 0
  br i1 %28, label %29, label %31

29:                                               ; preds = %26
  %30 = load ptr, ptr %13, align 8, !tbaa !22
  store i32 30, ptr %30, align 4, !tbaa !15
  store ptr %20, ptr %7, align 8
  br label %59

31:                                               ; preds = %26
  call void @llvm.lifetime.start.p0(i64 64, ptr %14) #13
  call void @_ZN6icu_7713UnicodeStringC2Ev(ptr noundef nonnull align 8 dereferenceable(64) %14)
  call void @llvm.lifetime.start.p0(i64 40, ptr %15) #13
  %32 = load ptr, ptr %9, align 8, !tbaa !25
  %33 = load ptr, ptr %12, align 8, !tbaa !27
  %34 = load ptr, ptr %10, align 8, !tbaa !53
  invoke void @_ZN6icu_7721RuleCharacterIteratorC1ERKNS_13UnicodeStringEPKNS_11SymbolTableERNS_13ParsePositionE(ptr noundef nonnull align 8 dereferenceable(36) %15, ptr noundef nonnull align 8 dereferenceable(64) %32, ptr noundef %33, ptr noundef nonnull align 8 dereferenceable(16) %34)
          to label %35 unwind label %46

35:                                               ; preds = %31
  %36 = load ptr, ptr %12, align 8, !tbaa !27
  %37 = load i32, ptr %11, align 4, !tbaa !14
  %38 = load ptr, ptr %13, align 8, !tbaa !22
  call void @llvm.lifetime.start.p0(i64 16, ptr %18) #13
  store { i64, i64 } { i64 ptrtoint (ptr @_ZN6icu_7710UnicodeSet9closeOverEi to i64), i64 0 }, ptr %18, align 8, !tbaa !55
  invoke void @_ZN6icu_7710UnicodeSet12applyPatternERNS_21RuleCharacterIteratorEPKNS_11SymbolTableERNS_13UnicodeStringEjMS0_FRS0_iEiR10UErrorCode(ptr noundef nonnull align 8 dereferenceable(200) %20, ptr noundef nonnull align 8 dereferenceable(36) %15, ptr noundef %36, ptr noundef nonnull align 8 dereferenceable(64) %14, i32 noundef %37, ptr noundef byval({ i64, i64 }) align 8 %18, i32 noundef 0, ptr noundef nonnull align 4 dereferenceable(4) %38)
          to label %39 unwind label %46

39:                                               ; preds = %35
  call void @llvm.lifetime.end.p0(i64 16, ptr %18) #13
  %40 = load ptr, ptr %13, align 8, !tbaa !22
  %41 = load i32, ptr %40, align 4, !tbaa !15
  %42 = invoke noundef signext i8 @_ZL9U_FAILURE10UErrorCode(i32 noundef %41)
          to label %43 unwind label %46

43:                                               ; preds = %39
  %44 = icmp ne i8 %42, 0
  br i1 %44, label %45, label %50

45:                                               ; preds = %43
  store ptr %20, ptr %7, align 8
  store i32 1, ptr %19, align 4
  br label %58

46:                                               ; preds = %56, %50, %39, %35, %31
  %47 = landingpad { ptr, i32 }
          cleanup
  %48 = extractvalue { ptr, i32 } %47, 0
  store ptr %48, ptr %16, align 8
  %49 = extractvalue { ptr, i32 } %47, 1
  store i32 %49, ptr %17, align 4
  call void @llvm.lifetime.end.p0(i64 40, ptr %15) #13
  call void @_ZN6icu_7713UnicodeStringD1Ev(ptr noundef nonnull align 8 dereferenceable(64) %14) #13
  call void @llvm.lifetime.end.p0(i64 64, ptr %14) #13
  br label %61

50:                                               ; preds = %43
  %51 = invoke noundef signext i8 @_ZNK6icu_7721RuleCharacterIterator10inVariableEv(ptr noundef nonnull align 8 dereferenceable(36) %15)
          to label %52 unwind label %46

52:                                               ; preds = %50
  %53 = icmp ne i8 %51, 0
  br i1 %53, label %54, label %56

54:                                               ; preds = %52
  %55 = load ptr, ptr %13, align 8, !tbaa !22
  store i32 65538, ptr %55, align 4, !tbaa !15
  store ptr %20, ptr %7, align 8
  store i32 1, ptr %19, align 4
  br label %58

56:                                               ; preds = %52
  invoke void @_ZN6icu_7710UnicodeSet10setPatternERKNS_13UnicodeStringE(ptr noundef nonnull align 8 dereferenceable(200) %20, ptr noundef nonnull align 8 dereferenceable(64) %14)
          to label %57 unwind label %46

57:                                               ; preds = %56
  store ptr %20, ptr %7, align 8
  store i32 1, ptr %19, align 4
  br label %58

58:                                               ; preds = %57, %54, %45
  call void @llvm.lifetime.end.p0(i64 40, ptr %15) #13
  call void @_ZN6icu_7713UnicodeStringD1Ev(ptr noundef nonnull align 8 dereferenceable(64) %14) #13
  call void @llvm.lifetime.end.p0(i64 64, ptr %14) #13
  br label %59

59:                                               ; preds = %58, %29, %25
  %60 = load ptr, ptr %7, align 8
  ret ptr %60

61:                                               ; preds = %46
  %62 = load ptr, ptr %16, align 8
  %63 = load i32, ptr %17, align 4
  %64 = insertvalue { ptr, i32 } poison, ptr %62, 0
  %65 = insertvalue { ptr, i32 } %64, i32 %63, 1
  resume { ptr, i32 } %65
}