; Function Attrs: mustprogress uwtable
define noundef nonnull align 8 dereferenceable(200) ptr @_ZN6icu_7710UnicodeSet12applyPatternERKNS_13UnicodeStringERNS_13ParsePositionEjPKNS_11SymbolTableER10UErrorCode(ptr noundef nonnull returned align 8 dereferenceable(200) %0, ptr noundef nonnull align 8 dereferenceable(64) %1, ptr noundef nonnull align 8 dereferenceable(16) %2, i32 noundef %3, ptr noundef %4, ptr noundef nonnull align 4 dereferenceable(4) %5) local_unnamed_addr #1 align 2 personality ptr @__gxx_personality_v0 {
  %7 = alloca %"class.icu_77::UnicodeString", align 8
  %8 = alloca %"class.icu_77::RuleCharacterIterator", align 8
  %9 = alloca { i64, i64 }, align 8
  %10 = load i32, ptr %5, align 4, !tbaa !13
  %11 = icmp slt i32 %10, 1
  br i1 %11, label %12, label %33

12:                                               ; preds = %6
  %13 = getelementptr inbounds nuw i8, ptr %0, i64 40
  %14 = load ptr, ptr %13, align 8, !tbaa !37
  %.not.i = icmp eq ptr %14, null
  %15 = getelementptr inbounds nuw i8, ptr %0, i64 88
  %16 = load ptr, ptr %15, align 8
  %17 = icmp eq ptr %16, null
  %narrow.i.not = select i1 %.not.i, i1 %17, i1 false
  br i1 %narrow.i.not, label %19, label %18

18:                                               ; preds = %12
  store i32 30, ptr %5, align 4, !tbaa !13
  br label %33

19:                                               ; preds = %12
  call void @llvm.lifetime.start.p0(i64 64, ptr nonnull %7) #13
  store ptr getelementptr inbounds nuw inrange(-16, 88) (i8, ptr @_ZTVN6icu_7713UnicodeStringE, i64 16), ptr %7, align 8, !tbaa !15
  %20 = getelementptr inbounds nuw i8, ptr %7, i64 8
  store i16 2, ptr %20, align 8, !tbaa !36
  call void @llvm.lifetime.start.p0(i64 40, ptr nonnull %8) #13
  invoke void @_ZN6icu_7721RuleCharacterIteratorC1ERKNS_13UnicodeStringEPKNS_11SymbolTableERNS_13ParsePositionE(ptr noundef nonnull align 8 dereferenceable(36) %8, ptr noundef nonnull align 8 dereferenceable(64) %1, ptr noundef %4, ptr noundef nonnull align 8 dereferenceable(16) %2)
          to label %21 unwind label %25

21:                                               ; preds = %19
  call void @llvm.lifetime.start.p0(i64 16, ptr nonnull %9) #13
  store i64 ptrtoint (ptr @_ZN6icu_7710UnicodeSet9closeOverEi to i64), ptr %9, align 8, !tbaa !36
  %.fca.1.gep = getelementptr inbounds nuw i8, ptr %9, i64 8
  store i64 0, ptr %.fca.1.gep, align 8, !tbaa !36
  invoke void @_ZN6icu_7710UnicodeSet12applyPatternERNS_21RuleCharacterIteratorEPKNS_11SymbolTableERNS_13UnicodeStringEjMS0_FRS0_iEiR10UErrorCode(ptr noundef nonnull align 8 dereferenceable(200) %0, ptr noundef nonnull align 8 dereferenceable(36) %8, ptr noundef %4, ptr noundef nonnull align 8 dereferenceable(64) %7, i32 noundef %3, ptr noundef nonnull byval({ i64, i64 }) align 8 %9, i32 noundef 0, ptr noundef nonnull align 4 dereferenceable(4) %5)
          to label %22 unwind label %25

22:                                               ; preds = %21
  call void @llvm.lifetime.end.p0(i64 16, ptr nonnull %9) #13
  %23 = load i32, ptr %5, align 4, !tbaa !13
  %24 = icmp slt i32 %23, 1
  br i1 %24, label %27, label %32

25:                                               ; preds = %31, %21, %19
  %26 = landingpad { ptr, i32 }
          cleanup
  call void @llvm.lifetime.end.p0(i64 40, ptr nonnull %8) #13
  call void @_ZN6icu_7713UnicodeStringD1Ev(ptr noundef nonnull align 8 dereferenceable(64) %7) #13
  call void @llvm.lifetime.end.p0(i64 64, ptr nonnull %7) #13
  resume { ptr, i32 } %26

27:                                               ; preds = %22
  %28 = getelementptr inbounds nuw i8, ptr %8, i64 24
  %29 = load ptr, ptr %28, align 8, !tbaa !38
  %.not = icmp eq ptr %29, null
  br i1 %.not, label %31, label %30

30:                                               ; preds = %27
  store i32 65538, ptr %5, align 4, !tbaa !13
  br label %32

31:                                               ; preds = %27
  invoke void @_ZN6icu_7710UnicodeSet10setPatternERKNS_13UnicodeStringE(ptr noundef nonnull align 8 dereferenceable(200) %0, ptr noundef nonnull align 8 dereferenceable(64) %7)
          to label %32 unwind label %25

32:                                               ; preds = %31, %22, %30
  call void @llvm.lifetime.end.p0(i64 40, ptr nonnull %8) #13
  call void @_ZN6icu_7713UnicodeStringD1Ev(ptr noundef nonnull align 8 dereferenceable(64) %7) #13
  call void @llvm.lifetime.end.p0(i64 64, ptr nonnull %7) #13
  br label %33

33:                                               ; preds = %6, %32, %18
  ret ptr %0
}